target datalayout = "e-m:e-p270:32:32-p271:32:32-p272:64:64-i64:64-i128:128-f80:128-n8:16:32:64-S128"
target triple = "x86_64-pc-linux-gnu"

%struct.anon = type { double, double, double, double, double, double, [2 x double], double }
%struct._generic_N_Vector = type { ptr, ptr, ptr }
%struct._N_VectorContent_Serial = type { i64, i32, ptr }

; Function Attrs: nounwind uwtable
define internal i32 @rhsQ(double noundef %0, ptr noundef %1, ptr noundef %2, ptr noundef %3, ptr noundef %4) #0 {
  %6 = alloca double, align 8
  %7 = alloca ptr, align 8
  %8 = alloca ptr, align 8
  %9 = alloca ptr, align 8
  %10 = alloca ptr, align 8
  %11 = alloca double, align 8
  %12 = alloca double, align 8
  %13 = alloca double, align 8
  %14 = alloca double, align 8
  %15 = alloca double, align 8
  %16 = alloca double, align 8
  %17 = alloca ptr, align 8
  store double %0, ptr %6, align 8, !tbaa !25
  store ptr %1, ptr %7, align 8, !tbaa !15
  store ptr %2, ptr %8, align 8, !tbaa !15
  store ptr %3, ptr %9, align 8, !tbaa !15
  store ptr %4, ptr %10, align 8, !tbaa !17
  call void @llvm.lifetime.start.p0(i64 8, ptr %11) #6
  call void @llvm.lifetime.start.p0(i64 8, ptr %12) #6
  call void @llvm.lifetime.start.p0(i64 8, ptr %13) #6
  call void @llvm.lifetime.start.p0(i64 8, ptr %14) #6
  call void @llvm.lifetime.start.p0(i64 8, ptr %15) #6
  call void @llvm.lifetime.start.p0(i64 8, ptr %16) #6
  call void @llvm.lifetime.start.p0(i64 8, ptr %17) #6
  %18 = load ptr, ptr %10, align 8, !tbaa !17
  store ptr %18, ptr %17, align 8, !tbaa !17
  %19 = load ptr, ptr %17, align 8, !tbaa !17
  %20 = getelementptr inbounds nuw %struct.anon, ptr %19, i32 0, i32 1
  %21 = load double, ptr %20, align 8, !tbaa !21
  store double %21, ptr %14, align 8, !tbaa !25
  %22 = load ptr, ptr %17, align 8, !tbaa !17
  %23 = getelementptr inbounds nuw %struct.anon, ptr %22, i32 0, i32 4
  %24 = load double, ptr %23, align 8, !tbaa !22
  store double %24, ptr %15, align 8, !tbaa !25
  %25 = load ptr, ptr %17, align 8, !tbaa !17
  %26 = getelementptr inbounds nuw %struct.anon, ptr %25, i32 0, i32 2
  %27 = load double, ptr %26, align 8, !tbaa !24
  store double %27, ptr %16, align 8, !tbaa !25
  %28 = load ptr, ptr %7, align 8, !tbaa !15
  %29 = getelementptr inbounds nuw %struct._generic_N_Vector, ptr %28, i32 0, i32 0
  %30 = load ptr, ptr %29, align 8, !tbaa !28
  %31 = getelementptr inbounds nuw %struct._N_VectorContent_Serial, ptr %30, i32 0, i32 2
  %32 = load ptr, ptr %31, align 8, !tbaa !31
  %33 = getelementptr inbounds double, ptr %32, i64 3
  %34 = load double, ptr %33, align 8, !tbaa !25
  store double %34, ptr %11, align 8, !tbaa !25
  %35 = load ptr, ptr %7, align 8, !tbaa !15
  %36 = getelementptr inbounds nuw %struct._generic_N_Vector, ptr %35, i32 0, i32 0
  %37 = load ptr, ptr %36, align 8, !tbaa !28
  %38 = getelementptr inbounds nuw %struct._N_VectorContent_Serial, ptr %37, i32 0, i32 2
  %39 = load ptr, ptr %38, align 8, !tbaa !31
  %40 = getelementptr inbounds double, ptr %39, i64 4
  %41 = load double, ptr %40, align 8, !tbaa !25
  store double %41, ptr %12, align 8, !tbaa !25
  %42 = load ptr, ptr %7, align 8, !tbaa !15
  %43 = getelementptr inbounds nuw %struct._generic_N_Vector, ptr %42, i32 0, i32 0
  %44 = load ptr, ptr %43, align 8, !tbaa !28
  %45 = getelementptr inbounds nuw %struct._N_VectorContent_Serial, ptr %44, i32 0, i32 2
  %46 = load ptr, ptr %45, align 8, !tbaa !31
  %47 = getelementptr inbounds double, ptr %46, i64 5
  %48 = load double, ptr %47, align 8, !tbaa !25
  store double %48, ptr %13, align 8, !tbaa !25
  %49 = load double, ptr %14, align 8, !tbaa !25
  %50 = load double, ptr %11, align 8, !tbaa !25
  %51 = fmul double %49, %50
  %52 = load double, ptr %11, align 8, !tbaa !25
  %53 = load double, ptr %15, align 8, !tbaa !25
  %54 = load double, ptr %12, align 8, !tbaa !25
  %55 = fmul double %53, %54
  %56 = load double, ptr %12, align 8, !tbaa !25
  %57 = fmul double %55, %56
  %58 = call double @llvm.fmuladd.f64(double %51, double %52, double %57)
  %59 = load double, ptr %16, align 8, !tbaa !25
  %60 = load double, ptr %13, align 8, !tbaa !25
  %61 = fmul double %59, %60
  %62 = load double, ptr %13, align 8, !tbaa !25
  %63 = call double @llvm.fmuladd.f64(double %61, double %62, double %58)
  %64 = fmul double 5.000000e-01, %63
  %65 = load ptr, ptr %9, align 8, !tbaa !15
  %66 = getelementptr inbounds nuw %struct._generic_N_Vector, ptr %65, i32 0, i32 0
  %67 = load ptr, ptr %66, align 8, !tbaa !28
  %68 = getelementptr inbounds nuw %struct._N_VectorContent_Serial, ptr %67, i32 0, i32 2
  %69 = load ptr, ptr %68, align 8, !tbaa !31
  %70 = getelementptr inbounds double, ptr %69, i64 0
  store double %64, ptr %70, align 8, !tbaa !25
  call void @llvm.lifetime.end.p0(i64 8, ptr %17) #6
  call void @llvm.lifetime.end.p0(i64 8, ptr %16) #6
  call void @llvm.lifetime.end.p0(i64 8, ptr %15) #6
  call void @llvm.lifetime.end.p0(i64 8, ptr %14) #6
  call void @llvm.lifetime.end.p0(i64 8, ptr %13) #6
  call void @llvm.lifetime.end.p0(i64 8, ptr %12) #6
  call void @llvm.lifetime.end.p0(i64 8, ptr %11) #6
  ret i32 0
}